target datalayout = "e-m:e-p270:32:32-p271:32:32-p272:64:64-i64:64-i128:128-f80:128-n8:16:32:64-S128"
target triple = "x86_64-pc-linux-gnu"

@H5P_LST_ATTRIBUTE_ACCESS_ID_g = global i64 -1, align 8
@H5P_LST_ATTRIBUTE_CREATE_ID_g = global i64 -1, align 8
@H5P_LST_DATASET_ACCESS_ID_g = global i64 -1, align 8
@H5P_LST_DATASET_CREATE_ID_g = global i64 -1, align 8
@H5P_LST_DATASET_XFER_ID_g = global i64 -1, align 8
@H5P_LST_DATATYPE_ACCESS_ID_g = global i64 -1, align 8
@H5P_LST_DATATYPE_CREATE_ID_g = global i64 -1, align 8
@H5P_LST_FILE_ACCESS_ID_g = global i64 -1, align 8
@H5P_LST_FILE_CREATE_ID_g = global i64 -1, align 8
@H5P_LST_FILE_MOUNT_ID_g = global i64 -1, align 8
@H5P_LST_GROUP_ACCESS_ID_g = global i64 -1, align 8
@H5P_LST_GROUP_CREATE_ID_g = global i64 -1, align 8
@H5P_LST_LINK_ACCESS_ID_g = global i64 -1, align 8
@H5P_LST_LINK_CREATE_ID_g = global i64 -1, align 8
@H5P_LST_MAP_ACCESS_ID_g = global i64 -1, align 8
@H5P_LST_MAP_CREATE_ID_g = global i64 -1, align 8
@H5P_LST_OBJECT_COPY_ID_g = global i64 -1, align 8
@H5P_LST_REFERENCE_ACCESS_ID_g = global i64 -1, align 8
@H5P_LST_VOL_INITIALIZE_ID_g = global i64 -1, align 8
@H5P_init_g = external global i8, align 1
@H5_libterm_g = external global i8, align 1
@.str.7 = private unnamed_addr constant [100 x i8] c"generated/home/dtcxzyw/WorkSpace/Projects/compilers/llvm-opt-benchmark/bench/hdf5/hdf5/src/H5Pint.c\00", align 1
@H5E_FUNC_g = external global i64, align 8
@H5E_CANTINIT_g = external global i64, align 8
@.str.8 = private unnamed_addr constant [32 x i8] c"interface initialization failed\00", align 1
@H5E_PLIST_g = external global i64, align 8
@H5E_ID_g = external global i64, align 8
@__func__.H5P_object_verify = private unnamed_addr constant [18 x i8] c"H5P_object_verify\00", align 1
@H5E_CANTCOMPARE_g = external global i64, align 8
@.str.54 = private unnamed_addr constant [43 x i8] c"property list is not a member of the class\00", align 1
@.str.55 = private unnamed_addr constant [32 x i8] c"property list is a default list\00", align 1
@H5E_BADID_g = external global i64, align 8
@.str.56 = private unnamed_addr constant [25 x i8] c"can't find object for ID\00", align 1

; Function Attrs: nounwind uwtable
define zeroext i1 @H5P_is_default_plist(i64 noundef %0) #0 {
  %2 = alloca i1, align 1
  %3 = alloca i64, align 8
  %4 = alloca [19 x i64], align 16
  %5 = alloca i64, align 8
  %6 = alloca i32, align 4
  %7 = alloca i64, align 8
  store i64 %0, ptr %3, align 8, !tbaa !11
  call void @llvm.lifetime.start.p0(i64 152, ptr %4) #8
  %8 = load i64, ptr @H5P_LST_FILE_CREATE_ID_g, align 8, !tbaa !11
  store i64 %8, ptr %4, align 8, !tbaa !11
  %9 = getelementptr inbounds i64, ptr %4, i64 1
  %10 = load i64, ptr @H5P_LST_FILE_ACCESS_ID_g, align 8, !tbaa !11
  store i64 %10, ptr %9, align 8, !tbaa !11
  %11 = getelementptr inbounds i64, ptr %4, i64 2
  %12 = load i64, ptr @H5P_LST_DATASET_CREATE_ID_g, align 8, !tbaa !11
  store i64 %12, ptr %11, align 8, !tbaa !11
  %13 = getelementptr inbounds i64, ptr %4, i64 3
  %14 = load i64, ptr @H5P_LST_DATASET_ACCESS_ID_g, align 8, !tbaa !11
  store i64 %14, ptr %13, align 8, !tbaa !11
  %15 = getelementptr inbounds i64, ptr %4, i64 4
  %16 = load i64, ptr @H5P_LST_DATASET_XFER_ID_g, align 8, !tbaa !11
  store i64 %16, ptr %15, align 8, !tbaa !11
  %17 = getelementptr inbounds i64, ptr %4, i64 5
  %18 = load i64, ptr @H5P_LST_FILE_MOUNT_ID_g, align 8, !tbaa !11
  store i64 %18, ptr %17, align 8, !tbaa !11
  %19 = getelementptr inbounds i64, ptr %4, i64 6
  %20 = load i64, ptr @H5P_LST_GROUP_CREATE_ID_g, align 8, !tbaa !11
  store i64 %20, ptr %19, align 8, !tbaa !11
  %21 = getelementptr inbounds i64, ptr %4, i64 7
  %22 = load i64, ptr @H5P_LST_GROUP_ACCESS_ID_g, align 8, !tbaa !11
  store i64 %22, ptr %21, align 8, !tbaa !11
  %23 = getelementptr inbounds i64, ptr %4, i64 8
  %24 = load i64, ptr @H5P_LST_DATATYPE_CREATE_ID_g, align 8, !tbaa !11
  store i64 %24, ptr %23, align 8, !tbaa !11
  %25 = getelementptr inbounds i64, ptr %4, i64 9
  %26 = load i64, ptr @H5P_LST_DATATYPE_ACCESS_ID_g, align 8, !tbaa !11
  store i64 %26, ptr %25, align 8, !tbaa !11
  %27 = getelementptr inbounds i64, ptr %4, i64 10
  %28 = load i64, ptr @H5P_LST_MAP_CREATE_ID_g, align 8, !tbaa !11
  store i64 %28, ptr %27, align 8, !tbaa !11
  %29 = getelementptr inbounds i64, ptr %4, i64 11
  %30 = load i64, ptr @H5P_LST_MAP_ACCESS_ID_g, align 8, !tbaa !11
  store i64 %30, ptr %29, align 8, !tbaa !11
  %31 = getelementptr inbounds i64, ptr %4, i64 12
  %32 = load i64, ptr @H5P_LST_ATTRIBUTE_CREATE_ID_g, align 8, !tbaa !11
  store i64 %32, ptr %31, align 8, !tbaa !11
  %33 = getelementptr inbounds i64, ptr %4, i64 13
  %34 = load i64, ptr @H5P_LST_ATTRIBUTE_ACCESS_ID_g, align 8, !tbaa !11
  store i64 %34, ptr %33, align 8, !tbaa !11
  %35 = getelementptr inbounds i64, ptr %4, i64 14
  %36 = load i64, ptr @H5P_LST_OBJECT_COPY_ID_g, align 8, !tbaa !11
  store i64 %36, ptr %35, align 8, !tbaa !11
  %37 = getelementptr inbounds i64, ptr %4, i64 15
  %38 = load i64, ptr @H5P_LST_LINK_CREATE_ID_g, align 8, !tbaa !11
  store i64 %38, ptr %37, align 8, !tbaa !11
  %39 = getelementptr inbounds i64, ptr %4, i64 16
  %40 = load i64, ptr @H5P_LST_LINK_ACCESS_ID_g, align 8, !tbaa !11
  store i64 %40, ptr %39, align 8, !tbaa !11
  %41 = getelementptr inbounds i64, ptr %4, i64 17
  %42 = load i64, ptr @H5P_LST_VOL_INITIALIZE_ID_g, align 8, !tbaa !11
  store i64 %42, ptr %41, align 8, !tbaa !11
  %43 = getelementptr inbounds i64, ptr %4, i64 18
  %44 = load i64, ptr @H5P_LST_REFERENCE_ACCESS_ID_g, align 8, !tbaa !11
  store i64 %44, ptr %43, align 8, !tbaa !11
  call void @llvm.lifetime.start.p0(i64 8, ptr %5) #8
  store i64 19, ptr %5, align 8, !tbaa !11
  %45 = load i64, ptr %3, align 8, !tbaa !11
  %46 = icmp eq i64 %45, 0
  br i1 %46, label %47, label %48

47:                                               ; preds = %1
  store i1 true, ptr %2, align 1
  store i32 1, ptr %6, align 4
  br label %68

48:                                               ; preds = %1
  call void @llvm.lifetime.start.p0(i64 8, ptr %7) #8
  store i64 0, ptr %7, align 8, !tbaa !11
  br label %49

49:                                               ; preds = %62, %48
  %50 = load i64, ptr %7, align 8, !tbaa !11
  %51 = load i64, ptr %5, align 8, !tbaa !11
  %52 = icmp ult i64 %50, %51
  br i1 %52, label %54, label %53

53:                                               ; preds = %49
  store i32 2, ptr %6, align 4
  br label %65

54:                                               ; preds = %49
  %55 = load i64, ptr %3, align 8, !tbaa !11
  %56 = load i64, ptr %7, align 8, !tbaa !11
  %57 = getelementptr inbounds nuw [19 x i64], ptr %4, i64 0, i64 %56
  %58 = load i64, ptr %57, align 8, !tbaa !11
  %59 = icmp eq i64 %55, %58
  br i1 %59, label %60, label %61

60:                                               ; preds = %54
  store i1 true, ptr %2, align 1
  store i32 1, ptr %6, align 4
  br label %65

61:                                               ; preds = %54
  br label %62

62:                                               ; preds = %61
  %63 = load i64, ptr %7, align 8, !tbaa !11
  %64 = add i64 %63, 1
  store i64 %64, ptr %7, align 8, !tbaa !11
  br label %49, !llvm.loop !126

65:                                               ; preds = %60, %53
  call void @llvm.lifetime.end.p0(i64 8, ptr %7) #8
  %66 = load i32, ptr %6, align 4
  switch i32 %66, label %68 [
    i32 2, label %67
  ]

67:                                               ; preds = %65
  store i1 false, ptr %2, align 1
  store i32 1, ptr %6, align 4
  br label %68

68:                                               ; preds = %67, %65, %47
  call void @llvm.lifetime.end.p0(i64 8, ptr %5) #8
  call void @llvm.lifetime.end.p0(i64 152, ptr %4) #8
  %69 = load i1, ptr %2, align 1
  ret i1 %69
}

; Function Attrs: nounwind uwtable
define ptr @H5P_object_verify(i64 noundef %0, i64 noundef %1, i1 noundef zeroext %2) #0 {
  %4 = alloca i64, align 8
  %5 = alloca i64, align 8
  %6 = alloca i8, align 1
  %7 = alloca ptr, align 8
  %8 = alloca i8, align 1
  store i64 %0, ptr %4, align 8, !tbaa !11
  store i64 %1, ptr %5, align 8, !tbaa !11
  %9 = zext i1 %2 to i8
  store i8 %9, ptr %6, align 1, !tbaa !7
  call void @llvm.lifetime.start.p0(i64 8, ptr %7) #8
  store ptr null, ptr %7, align 8, !tbaa !59
  call void @llvm.lifetime.start.p0(i64 1, ptr %8) #8
  store i8 0, ptr %8, align 1, !tbaa !7
  %10 = load i8, ptr @H5P_init_g, align 1, !tbaa !7, !range !9, !noundef !10
  %11 = trunc i8 %10 to i1
  br i1 %11, label %16, label %12

12:                                               ; preds = %3
  %13 = load i8, ptr @H5_libterm_g, align 1, !tbaa !7, !range !9, !noundef !10
  %14 = trunc i8 %13 to i1
  %15 = xor i1 %14, true
  br label %16

16:                                               ; preds = %12, %3
  %17 = phi i1 [ false, %3 ], [ %15, %12 ]
  %18 = xor i1 %17, true
  %19 = xor i1 %18, true
  %20 = zext i1 %19 to i32
  %21 = sext i32 %20 to i64
  %22 = call i64 @llvm.expect.i64(i64 %21, i64 0)
  %23 = icmp ne i64 %22, 0
  br i1 %23, label %24, label %47

24:                                               ; preds = %16
  store i8 1, ptr @H5P_init_g, align 1, !tbaa !7
  %25 = call i32 @H5P__init_package()
  %26 = icmp slt i32 %25, 0
  br i1 %26, label %27, label %46

27:                                               ; preds = %24
  store i8 0, ptr @H5P_init_g, align 1, !tbaa !7
  br label %28

28:                                               ; preds = %27
  br label %29

29:                                               ; preds = %28
  br label %30

30:                                               ; preds = %29
  %31 = load i64, ptr @H5E_FUNC_g, align 8, !tbaa !11
  %32 = load i64, ptr @H5E_CANTINIT_g, align 8, !tbaa !11
  %33 = call i32 (ptr, ptr, i32, i64, i64, ptr, ...) @H5E_printf_stack(ptr noundef @.str.7, ptr noundef @__func__.H5P_object_verify, i32 noundef 4218, i64 noundef %31, i64 noundef %32, ptr noundef @.str.8)
  br label %34

34:                                               ; preds = %30
  br label %35

35:                                               ; preds = %34
  store i8 1, ptr %8, align 1, !tbaa !7
  %36 = load i8, ptr %8, align 1, !tbaa !7, !range !9, !noundef !10
  %37 = trunc i8 %36 to i1
  %38 = zext i1 %37 to i8
  store i8 %38, ptr %8, align 1, !tbaa !7
  br label %39

39:                                               ; preds = %35
  br label %40

40:                                               ; preds = %39
  br label %41

41:                                               ; preds = %40
  store ptr null, ptr %7, align 8, !tbaa !59
  br label %135

42:                                               ; No predecessors!
  br label %43

43:                                               ; preds = %42
  br label %44

44:                                               ; preds = %43
  br label %45

45:                                               ; preds = %44
  br label %46

46:                                               ; preds = %45, %24
  br label %47

47:                                               ; preds = %46, %16
  %48 = load i8, ptr @H5P_init_g, align 1, !tbaa !7, !range !9, !noundef !10
  %49 = trunc i8 %48 to i1
  br i1 %49, label %54, label %50

50:                                               ; preds = %47
  %51 = load i8, ptr @H5_libterm_g, align 1, !tbaa !7, !range !9, !noundef !10
  %52 = trunc i8 %51 to i1
  %53 = xor i1 %52, true
  br label %54

54:                                               ; preds = %50, %47
  %55 = phi i1 [ true, %47 ], [ %53, %50 ]
  %56 = xor i1 %55, true
  %57 = xor i1 %56, true
  %58 = zext i1 %57 to i32
  %59 = sext i32 %58 to i64
  %60 = call i64 @llvm.expect.i64(i64 %59, i64 1)
  %61 = icmp ne i64 %60, 0
  br i1 %61, label %62, label %136

62:                                               ; preds = %54
  %63 = load i64, ptr %4, align 8, !tbaa !11
  %64 = load i64, ptr %5, align 8, !tbaa !11
  %65 = call i32 @H5P_isa_class(i64 noundef %63, i64 noundef %64)
  %66 = icmp ne i32 %65, 1
  br i1 %66, label %67, label %86

67:                                               ; preds = %62
  br label %68

68:                                               ; preds = %67
  br label %69

69:                                               ; preds = %68
  br label %70

70:                                               ; preds = %69
  %71 = load i64, ptr @H5E_PLIST_g, align 8, !tbaa !11
  %72 = load i64, ptr @H5E_CANTCOMPARE_g, align 8, !tbaa !11
  %73 = call i32 (ptr, ptr, i32, i64, i64, ptr, ...) @H5E_printf_stack(ptr noundef @.str.7, ptr noundef @__func__.H5P_object_verify, i32 noundef 4222, i64 noundef %71, i64 noundef %72, ptr noundef @.str.54)
  br label %74

74:                                               ; preds = %70
  br label %75

75:                                               ; preds = %74
  store i8 1, ptr %8, align 1, !tbaa !7
  %76 = load i8, ptr %8, align 1, !tbaa !7, !range !9, !noundef !10
  %77 = trunc i8 %76 to i1
  %78 = zext i1 %77 to i8
  store i8 %78, ptr %8, align 1, !tbaa !7
  br label %79

79:                                               ; preds = %75
  br label %80

80:                                               ; preds = %79
  br label %81

81:                                               ; preds = %80
  store ptr null, ptr %7, align 8, !tbaa !59
  br label %135

82:                                               ; No predecessors!
  br label %83

83:                                               ; preds = %82
  br label %84

84:                                               ; preds = %83
  br label %85

85:                                               ; preds = %84
  br label %86

86:                                               ; preds = %85, %62
  %87 = load i8, ptr %6, align 1, !tbaa !7, !range !9, !noundef !10
  %88 = trunc i8 %87 to i1
  br i1 %88, label %111, label %89

89:                                               ; preds = %86
  %90 = load i64, ptr %4, align 8, !tbaa !11
  %91 = call zeroext i1 @H5P_is_default_plist(i64 noundef %90)
  br i1 %91, label %92, label %111

92:                                               ; preds = %89
  br label %93

93:                                               ; preds = %92
  br label %94

94:                                               ; preds = %93
  br label %95

95:                                               ; preds = %94
  %96 = load i64, ptr @H5E_PLIST_g, align 8, !tbaa !11
  %97 = load i64, ptr @H5E_CANTCOMPARE_g, align 8, !tbaa !11
  %98 = call i32 (ptr, ptr, i32, i64, i64, ptr, ...) @H5E_printf_stack(ptr noundef @.str.7, ptr noundef @__func__.H5P_object_verify, i32 noundef 4225, i64 noundef %96, i64 noundef %97, ptr noundef @.str.55)
  br label %99

99:                                               ; preds = %95
  br label %100

100:                                              ; preds = %99
  store i8 1, ptr %8, align 1, !tbaa !7
  %101 = load i8, ptr %8, align 1, !tbaa !7, !range !9, !noundef !10
  %102 = trunc i8 %101 to i1
  %103 = zext i1 %102 to i8
  store i8 %103, ptr %8, align 1, !tbaa !7
  br label %104

104:                                              ; preds = %100
  br label %105

105:                                              ; preds = %104
  br label %106

106:                                              ; preds = %105
  store ptr null, ptr %7, align 8, !tbaa !59
  br label %135

107:                                              ; No predecessors!
  br label %108

108:                                              ; preds = %107
  br label %109

109:                                              ; preds = %108
  br label %110

110:                                              ; preds = %109
  br label %111

111:                                              ; preds = %110, %89, %86
  %112 = load i64, ptr %4, align 8, !tbaa !11
  %113 = call ptr @H5I_object(i64 noundef %112)
  store ptr %113, ptr %7, align 8, !tbaa !59
  %114 = icmp eq ptr null, %113
  br i1 %114, label %115, label %134

115:                                              ; preds = %111
  br label %116

116:                                              ; preds = %115
  br label %117

117:                                              ; preds = %116
  br label %118

118:                                              ; preds = %117
  %119 = load i64, ptr @H5E_ID_g, align 8, !tbaa !11
  %120 = load i64, ptr @H5E_BADID_g, align 8, !tbaa !11
  %121 = call i32 (ptr, ptr, i32, i64, i64, ptr, ...) @H5E_printf_stack(ptr noundef @.str.7, ptr noundef @__func__.H5P_object_verify, i32 noundef 4230, i64 noundef %119, i64 noundef %120, ptr noundef @.str.56)
  br label %122

122:                                              ; preds = %118
  br label %123

123:                                              ; preds = %122
  store i8 1, ptr %8, align 1, !tbaa !7
  %124 = load i8, ptr %8, align 1, !tbaa !7, !range !9, !noundef !10
  %125 = trunc i8 %124 to i1
  %126 = zext i1 %125 to i8
  store i8 %126, ptr %8, align 1, !tbaa !7
  br label %127

127:                                              ; preds = %123
  br label %128

128:                                              ; preds = %127
  br label %129

129:                                              ; preds = %128
  store ptr null, ptr %7, align 8, !tbaa !59
  br label %135

130:                                              ; No predecessors!
  br label %131

131:                                              ; preds = %130
  br label %132

132:                                              ; preds = %131
  br label %133

133:                                              ; preds = %132
  br label %134

134:                                              ; preds = %133, %111
  br label %135

135:                                              ; preds = %134, %129, %106, %81, %41
  br label %136

136:                                              ; preds = %135, %54
  %137 = load ptr, ptr %7, align 8, !tbaa !59
  call void @llvm.lifetime.end.p0(i64 1, ptr %8) #8
  call void @llvm.lifetime.end.p0(i64 8, ptr %7) #8
  ret ptr %137
}