; Function Attrs: nounwind uwtable
define ptr @H5P_object_verify(i64 noundef %0, i64 noundef %1, i1 noundef zeroext %2) local_unnamed_addr #0 {
  %4 = alloca [19 x i64], align 16
  %5 = load i8, ptr @H5P_init_g, align 1, !tbaa !3, !range !7, !noundef !8
  %6 = trunc nuw i8 %5 to i1
  %7 = load i8, ptr @H5_libterm_g, align 1, !range !7
  %8 = trunc nuw i8 %7 to i1
  %9 = select i1 %6, i1 true, i1 %8
  br i1 %9, label %17, label %10, !prof !9

10:                                               ; preds = %3
  store i8 1, ptr @H5P_init_g, align 1, !tbaa !3
  %11 = tail call i32 @H5P__init_package()
  %12 = icmp slt i32 %11, 0
  br i1 %12, label %13, label %._crit_edge

._crit_edge:                                      ; preds = %10
  %.pre = load i8, ptr @H5P_init_g, align 1, !tbaa !3, !range !7
  %.pre11 = load i8, ptr @H5_libterm_g, align 1, !range !7
  %.pre12 = trunc nuw i8 %.pre to i1
  %.pre13 = trunc nuw i8 %.pre11 to i1
  br label %17

13:                                               ; preds = %10
  store i8 0, ptr @H5P_init_g, align 1, !tbaa !3
  %14 = load i64, ptr @H5E_FUNC_g, align 8, !tbaa !10
  %15 = load i64, ptr @H5E_CANTINIT_g, align 8, !tbaa !10
  %16 = tail call i32 (ptr, ptr, i32, i64, i64, ptr, ...) @H5E_printf_stack(ptr noundef nonnull @.str.7, ptr noundef nonnull @__func__.H5P_object_verify, i32 noundef 4218, i64 noundef %14, i64 noundef %15, ptr noundef nonnull @.str.8) #14
  br label %81

17:                                               ; preds = %._crit_edge, %3
  %.pre-phi14 = phi i1 [ %.pre13, %._crit_edge ], [ %8, %3 ]
  %.pre-phi = phi i1 [ %.pre12, %._crit_edge ], [ %6, %3 ]
  %18 = xor i1 %.pre-phi14, true
  %19 = select i1 %.pre-phi, i1 true, i1 %18
  br i1 %19, label %20, label %81, !prof !9

20:                                               ; preds = %17
  %21 = tail call i32 @H5P_isa_class(i64 noundef %0, i64 noundef %1)
  %.not = icmp eq i32 %21, 1
  br i1 %.not, label %26, label %22

22:                                               ; preds = %20
  %23 = load i64, ptr @H5E_PLIST_g, align 8, !tbaa !10
  %24 = load i64, ptr @H5E_CANTCOMPARE_g, align 8, !tbaa !10
  %25 = tail call i32 (ptr, ptr, i32, i64, i64, ptr, ...) @H5E_printf_stack(ptr noundef nonnull @.str.7, ptr noundef nonnull @__func__.H5P_object_verify, i32 noundef 4222, i64 noundef %23, i64 noundef %24, ptr noundef nonnull @.str.54) #14
  br label %81

26:                                               ; preds = %20
  br i1 %2, label %74, label %27

27:                                               ; preds = %26
  call void @llvm.lifetime.start.p0(i64 152, ptr nonnull %4) #14
  %28 = load i64, ptr @H5P_LST_FILE_CREATE_ID_g, align 8, !tbaa !10
  store i64 %28, ptr %4, align 16, !tbaa !10
  %29 = getelementptr inbounds nuw i8, ptr %4, i64 8
  %30 = load i64, ptr @H5P_LST_FILE_ACCESS_ID_g, align 8, !tbaa !10
  store i64 %30, ptr %29, align 8, !tbaa !10
  %31 = getelementptr inbounds nuw i8, ptr %4, i64 16
  %32 = load i64, ptr @H5P_LST_DATASET_CREATE_ID_g, align 8, !tbaa !10
  store i64 %32, ptr %31, align 16, !tbaa !10
  %33 = getelementptr inbounds nuw i8, ptr %4, i64 24
  %34 = load i64, ptr @H5P_LST_DATASET_ACCESS_ID_g, align 8, !tbaa !10
  store i64 %34, ptr %33, align 8, !tbaa !10
  %35 = getelementptr inbounds nuw i8, ptr %4, i64 32
  %36 = load i64, ptr @H5P_LST_DATASET_XFER_ID_g, align 8, !tbaa !10
  store i64 %36, ptr %35, align 16, !tbaa !10
  %37 = getelementptr inbounds nuw i8, ptr %4, i64 40
  %38 = load i64, ptr @H5P_LST_FILE_MOUNT_ID_g, align 8, !tbaa !10
  store i64 %38, ptr %37, align 8, !tbaa !10
  %39 = getelementptr inbounds nuw i8, ptr %4, i64 48
  %40 = load i64, ptr @H5P_LST_GROUP_CREATE_ID_g, align 8, !tbaa !10
  store i64 %40, ptr %39, align 16, !tbaa !10
  %41 = getelementptr inbounds nuw i8, ptr %4, i64 56
  %42 = load i64, ptr @H5P_LST_GROUP_ACCESS_ID_g, align 8, !tbaa !10
  store i64 %42, ptr %41, align 8, !tbaa !10
  %43 = getelementptr inbounds nuw i8, ptr %4, i64 64
  %44 = load i64, ptr @H5P_LST_DATATYPE_CREATE_ID_g, align 8, !tbaa !10
  store i64 %44, ptr %43, align 16, !tbaa !10
  %45 = getelementptr inbounds nuw i8, ptr %4, i64 72
  %46 = load i64, ptr @H5P_LST_DATATYPE_ACCESS_ID_g, align 8, !tbaa !10
  store i64 %46, ptr %45, align 8, !tbaa !10
  %47 = getelementptr inbounds nuw i8, ptr %4, i64 80
  %48 = load i64, ptr @H5P_LST_MAP_CREATE_ID_g, align 8, !tbaa !10
  store i64 %48, ptr %47, align 16, !tbaa !10
  %49 = getelementptr inbounds nuw i8, ptr %4, i64 88
  %50 = load i64, ptr @H5P_LST_MAP_ACCESS_ID_g, align 8, !tbaa !10
  store i64 %50, ptr %49, align 8, !tbaa !10
  %51 = getelementptr inbounds nuw i8, ptr %4, i64 96
  %52 = load i64, ptr @H5P_LST_ATTRIBUTE_CREATE_ID_g, align 8, !tbaa !10
  store i64 %52, ptr %51, align 16, !tbaa !10
  %53 = getelementptr inbounds nuw i8, ptr %4, i64 104
  %54 = load i64, ptr @H5P_LST_ATTRIBUTE_ACCESS_ID_g, align 8, !tbaa !10
  store i64 %54, ptr %53, align 8, !tbaa !10
  %55 = getelementptr inbounds nuw i8, ptr %4, i64 112
  %56 = load i64, ptr @H5P_LST_OBJECT_COPY_ID_g, align 8, !tbaa !10
  store i64 %56, ptr %55, align 16, !tbaa !10
  %57 = getelementptr inbounds nuw i8, ptr %4, i64 120
  %58 = load i64, ptr @H5P_LST_LINK_CREATE_ID_g, align 8, !tbaa !10
  store i64 %58, ptr %57, align 8, !tbaa !10
  %59 = getelementptr inbounds nuw i8, ptr %4, i64 128
  %60 = load i64, ptr @H5P_LST_LINK_ACCESS_ID_g, align 8, !tbaa !10
  store i64 %60, ptr %59, align 16, !tbaa !10
  %61 = getelementptr inbounds nuw i8, ptr %4, i64 136
  %62 = load i64, ptr @H5P_LST_VOL_INITIALIZE_ID_g, align 8, !tbaa !10
  store i64 %62, ptr %61, align 8, !tbaa !10
  %63 = getelementptr inbounds nuw i8, ptr %4, i64 144
  %64 = load i64, ptr @H5P_LST_REFERENCE_ACCESS_ID_g, align 8, !tbaa !10
  store i64 %64, ptr %63, align 16, !tbaa !10
  %65 = icmp eq i64 %0, 0
  br i1 %65, label %.loopexit, label %.preheader.i

66:                                               ; preds = %.preheader.i
  %67 = add nuw nsw i64 %.010.i, 1
  %exitcond.not.i = icmp eq i64 %67, 19
  br i1 %exitcond.not.i, label %H5P_is_default_plist.exit, label %.preheader.i, !llvm.loop !114

.preheader.i:                                     ; preds = %27, %66
  %.010.i = phi i64 [ %67, %66 ], [ 0, %27 ]
  %68 = getelementptr inbounds nuw [19 x i64], ptr %4, i64 0, i64 %.010.i
  %69 = load i64, ptr %68, align 8, !tbaa !10
  %70 = icmp eq i64 %0, %69
  br i1 %70, label %.loopexit, label %66

H5P_is_default_plist.exit:                        ; preds = %66
  call void @llvm.lifetime.end.p0(i64 152, ptr nonnull %4) #14
  br label %74

.loopexit:                                        ; preds = %.preheader.i, %27
  call void @llvm.lifetime.end.p0(i64 152, ptr nonnull %4) #14
  %71 = load i64, ptr @H5E_PLIST_g, align 8, !tbaa !10
  %72 = load i64, ptr @H5E_CANTCOMPARE_g, align 8, !tbaa !10
  %73 = tail call i32 (ptr, ptr, i32, i64, i64, ptr, ...) @H5E_printf_stack(ptr noundef nonnull @.str.7, ptr noundef nonnull @__func__.H5P_object_verify, i32 noundef 4225, i64 noundef %71, i64 noundef %72, ptr noundef nonnull @.str.55) #14
  br label %81

74:                                               ; preds = %H5P_is_default_plist.exit, %26
  %75 = tail call ptr @H5I_object(i64 noundef %0) #14
  %76 = icmp eq ptr %75, null
  br i1 %76, label %77, label %81

77:                                               ; preds = %74
  %78 = load i64, ptr @H5E_ID_g, align 8, !tbaa !10
  %79 = load i64, ptr @H5E_BADID_g, align 8, !tbaa !10
  %80 = tail call i32 (ptr, ptr, i32, i64, i64, ptr, ...) @H5E_printf_stack(ptr noundef nonnull @.str.7, ptr noundef nonnull @__func__.H5P_object_verify, i32 noundef 4230, i64 noundef %78, i64 noundef %79, ptr noundef nonnull @.str.56) #14
  br label %81

81:                                               ; preds = %13, %22, %.loopexit, %77, %74, %17
  %.0 = phi ptr [ null, %13 ], [ null, %22 ], [ null, %77 ], [ %75, %74 ], [ null, %.loopexit ], [ null, %17 ]
  ret ptr %.0
}